target datalayout = "e-m:e-p270:32:32-p271:32:32-p272:64:64-i64:64-i128:128-f80:128-n8:16:32:64-S128"
target triple = "x86_64-pc-linux-gnu"

%"class.Ipopt::IpoptCalculatedQuantities" = type <{ %"class.Ipopt::ReferencedObject.base", [4 x i8], %"class.Ipopt::SmartPtr.10", %"class.Ipopt::SmartPtr.11", %"class.Ipopt::SmartPtr.12", double, double, double, i32, i8, [3 x i8], double, %"class.Ipopt::CachedResults", %"class.Ipopt::CachedResults", %"class.Ipopt::CachedResults", %"class.Ipopt::CachedResults", %"class.Ipopt::CachedResults", %"class.Ipopt::CachedResults", %"class.Ipopt::CachedResults", %"class.Ipopt::CachedResults", i32, i32, i32, i32, %"class.Ipopt::CachedResults.13", %"class.Ipopt::CachedResults.13", %"class.Ipopt::CachedResults.14", %"class.Ipopt::CachedResults.14", %"class.Ipopt::CachedResults.13", %"class.Ipopt::CachedResults.13", %"class.Ipopt::CachedResults.14", %"class.Ipopt::CachedResults.14", %"class.Ipopt::CachedResults.14", %"class.Ipopt::CachedResults.14", %"class.Ipopt::CachedResults.14", %"class.Ipopt::CachedResults.14", %"class.Ipopt::CachedResults.14", %"class.Ipopt::CachedResults.14", %"class.Ipopt::CachedResults.14", %"class.Ipopt::CachedResults.14", %"class.Ipopt::CachedResults.15", %"class.Ipopt::CachedResults.15", %"class.Ipopt::CachedResults.15", %"class.Ipopt::CachedResults.15", %"class.Ipopt::CachedResults.14", %"class.Ipopt::CachedResults.14", %"class.Ipopt::CachedResults.14", %"class.Ipopt::CachedResults.14", %"class.Ipopt::CachedResults.14", %"class.Ipopt::CachedResults.14", %"class.Ipopt::CachedResults.13", %"class.Ipopt::CachedResults.13", %"class.Ipopt::CachedResults.13", %"class.Ipopt::CachedResults.13", %"class.Ipopt::CachedResults.13", %"class.Ipopt::CachedResults.16", %"class.Ipopt::CachedResults.14", %"class.Ipopt::CachedResults.14", %"class.Ipopt::CachedResults.14", %"class.Ipopt::CachedResults.14", %"class.Ipopt::CachedResults.14", %"class.Ipopt::CachedResults.14", %"class.Ipopt::CachedResults.14", %"class.Ipopt::CachedResults.14", %"class.Ipopt::CachedResults.14", %"class.Ipopt::CachedResults.14", %"class.Ipopt::CachedResults.14", %"class.Ipopt::CachedResults.14", %"class.Ipopt::CachedResults.14", %"class.Ipopt::CachedResults.14", %"class.Ipopt::CachedResults.14", %"class.Ipopt::CachedResults.14", %"class.Ipopt::CachedResults.14", %"class.Ipopt::CachedResults.14", %"class.Ipopt::CachedResults.13", %"class.Ipopt::CachedResults.13", %"class.Ipopt::CachedResults.13", %"class.Ipopt::CachedResults.13", %"class.Ipopt::CachedResults.13", %"class.Ipopt::CachedResults.13", %"class.Ipopt::CachedResults.13", %"class.Ipopt::CachedResults.13", %"class.Ipopt::CachedResults.13", %"class.Ipopt::CachedResults.13", %"class.Ipopt::CachedResults.13", %"class.Ipopt::CachedResults.13", %"class.Ipopt::CachedResults.13", %"class.Ipopt::CachedResults.17", %"class.Ipopt::CachedResults.13", %"class.Ipopt::CachedResults", %"class.Ipopt::CachedResults", %"class.Ipopt::CachedResults.13", %"class.Ipopt::CachedResults.13", %"class.Ipopt::CachedResults.13", %"class.Ipopt::CachedResults.14", %"class.Ipopt::CachedResults.14", %"class.Ipopt::CachedResults.13", %"class.Ipopt::CachedResults.13", %"class.Ipopt::CachedResults.13", %"class.Ipopt::SmartPtr.18", %"class.Ipopt::SmartPtr.18", %"class.Ipopt::SmartPtr.18", %"class.Ipopt::SmartPtr.18", %"class.Ipopt::SmartPtr.18", %"class.Ipopt::SmartPtr.18", %"class.Ipopt::SmartPtr.18", %"class.Ipopt::SmartPtr.18", %"class.Ipopt::SmartPtr.18", %"class.Ipopt::SmartPtr.18", %"class.Ipopt::SmartPtr.18", %"class.Ipopt::SmartPtr.18", i8, [7 x i8] }>
%"class.Ipopt::ReferencedObject.base" = type <{ ptr, i32 }>
%"class.Ipopt::SmartPtr.10" = type { ptr }
%"class.Ipopt::SmartPtr.11" = type { ptr }
%"class.Ipopt::SmartPtr.12" = type { ptr }
%"class.Ipopt::CachedResults.15" = type { ptr, i32, ptr }
%"class.Ipopt::CachedResults.16" = type { ptr, i32, ptr }
%"class.Ipopt::CachedResults.17" = type { ptr, i32, ptr }
%"class.Ipopt::CachedResults" = type { ptr, i32, ptr }
%"class.Ipopt::CachedResults.14" = type { ptr, i32, ptr }
%"class.Ipopt::CachedResults.13" = type { ptr, i32, ptr }
%"class.Ipopt::SmartPtr.18" = type { ptr }

; Function Attrs: mustprogress uwtable
define noundef double @_ZN5Ipopt25IpoptCalculatedQuantities26trial_constraint_violationEv(ptr noundef nonnull align 8 dereferenceable(2185) %0) unnamed_addr #6 align 2 {
  %2 = alloca ptr, align 8
  store ptr %0, ptr %2, align 8, !tbaa !12
  %3 = load ptr, ptr %2, align 8
  %4 = getelementptr inbounds nuw %"class.Ipopt::IpoptCalculatedQuantities", ptr %3, i32 0, i32 8
  %5 = load i32, ptr %4, align 8, !tbaa !122
  %6 = load ptr, ptr %3, align 8, !tbaa !18
  %7 = getelementptr inbounds ptr, ptr %6, i64 16
  %8 = load ptr, ptr %7, align 8
  %9 = call noundef double %8(ptr noundef nonnull align 8 dereferenceable(2185) %3, i32 noundef %5)
  ret double %9
}