; Function Attrs: mustprogress uwtable
define noundef double @_ZN5Ipopt25IpoptCalculatedQuantities26trial_constraint_violationEv(ptr noundef nonnull align 8 dereferenceable(2185) %0) unnamed_addr #6 align 2 {
  %2 = getelementptr inbounds nuw i8, ptr %0, i64 64
  %3 = load i32, ptr %2, align 8, !tbaa !96
  %4 = load ptr, ptr %0, align 8, !tbaa !16
  %5 = getelementptr inbounds nuw i8, ptr %4, i64 128
  %6 = load ptr, ptr %5, align 8
  %7 = tail call noundef double %6(ptr noundef nonnull align 8 dereferenceable(2185) %0, i32 noundef %3)
  ret double %7
}